target datalayout = "e-m:e-p270:32:32-p271:32:32-p272:64:64-i64:64-i128:128-f80:128-n8:16:32:64-S128"
target triple = "x86_64-pc-linux-gnu"

%struct.slurm_conf_t = type { i64, ptr, i16, ptr, ptr, ptr, ptr, ptr, i16, ptr, ptr, ptr, ptr, ptr, ptr, ptr, i16, ptr, ptr, ptr, ptr, i16, ptr, ptr, ptr, i64, ptr, ptr, ptr, ptr, i16, ptr, ptr, i16, i32, ptr, i32, ptr, i32, i32, ptr, ptr, i64, i64, ptr, i16, i16, ptr, i32, i32, ptr, i32, ptr, i32, i16, i16, i16, ptr, i16, i16, ptr, ptr, i32, i16, i16, ptr, i32, i16, ptr, ptr, ptr, ptr, i16, ptr, ptr, ptr, ptr, i32, ptr, ptr, ptr, ptr, i16, i16, ptr, i32, i32, i32, i16, i16, ptr, ptr, i16, ptr, ptr, i32, i32, i32, i32, i32, i64, i32, i32, i16, ptr, ptr, i32, ptr, ptr, ptr, i16, i32, ptr, ptr, i16, ptr, ptr, i32, i16, ptr, ptr, ptr, ptr, i32, i32, i16, i16, i32, ptr, i16, ptr, i32, i32, i32, i32, i32, i32, ptr, i16, ptr, ptr, i32, i16, ptr, i32, i16, i16, ptr, ptr, ptr, i16, ptr, ptr, ptr, ptr, i16, i16, ptr, i16, ptr, i16, ptr, i16, ptr, i16, ptr, ptr, ptr, ptr, i16, ptr, ptr, ptr, i32, ptr, i32, ptr, ptr, i16, ptr, ptr, i32, i16, ptr, ptr, i16, i16, ptr, i16, ptr, ptr, ptr, i32, ptr, i16, i16, ptr, ptr, ptr, ptr, ptr, ptr, ptr, ptr, i16, i32, i16, ptr, ptr, ptr, ptr, i32, ptr, ptr, ptr, i16, ptr, ptr, ptr, i16, ptr, i16, ptr, i16, i16, ptr }
%struct.exc_node_partital = type { i32, ptr }
%struct.node_record = type { ptr, ptr, i16, i64, i64, ptr, ptr, ptr, i16, ptr, i16, i16, i32, i32, i64, ptr, i16, i16, ptr, ptr, ptr, ptr, ptr, i64, i64, ptr, ptr, ptr, ptr, i32, ptr, ptr, i64, i64, i32, ptr, i64, ptr, i32, i16, ptr, ptr, i32, ptr, i32, i8, ptr, i32, i16, i16, ptr, i16, i64, i16, i64, ptr, i64, i32, i16, i64, i16, ptr, i16, i64, ptr, i64, i16, i32, i16, ptr, ptr, ptr, i16, i32, i16, i16, i32, ptr, i16, i32 }

@power_save_debug = dso_local global i8 0, align 1
@slurm_conf = external global %struct.slurm_conf_t, align 8
@.str.69 = private unnamed_addr constant [58 x i8] c"POWER: avoid %d nodes: active: %d (%s), suspendable: (%s)\00", align 1

; Function Attrs: nounwind uwtable
define internal zeroext i1 @_node_state_active(ptr noundef %0) #0 {
  %2 = alloca i1, align 1
  %3 = alloca ptr, align 8
  store ptr %0, ptr %3, align 8
  %4 = load ptr, ptr %3, align 8
  %5 = getelementptr inbounds nuw %struct.node_record, ptr %4, i32 0, i32 44
  %6 = load i32, ptr %5, align 8
  %7 = and i32 %6, 15
  %8 = icmp eq i32 %7, 3
  br i1 %8, label %16, label %9

9:                                                ; preds = %1
  %10 = load ptr, ptr %3, align 8
  %11 = getelementptr inbounds nuw %struct.node_record, ptr %10, i32 0, i32 44
  %12 = load i32, ptr %11, align 8
  %13 = and i32 %12, 15
  %14 = icmp eq i32 %13, 2
  br i1 %14, label %16, label %15

15:                                               ; preds = %9
  store i1 false, ptr %2, align 1
  br label %52

16:                                               ; preds = %9, %1
  %17 = load ptr, ptr %3, align 8
  %18 = getelementptr inbounds nuw %struct.node_record, ptr %17, i32 0, i32 44
  %19 = load i32, ptr %18, align 8
  %20 = zext i32 %19 to i64
  %21 = and i64 %20, 262144
  %22 = icmp ne i64 %21, 0
  br i1 %22, label %50, label %23

23:                                               ; preds = %16
  %24 = load ptr, ptr %3, align 8
  %25 = getelementptr inbounds nuw %struct.node_record, ptr %24, i32 0, i32 44
  %26 = load i32, ptr %25, align 8
  %27 = zext i32 %26 to i64
  %28 = and i64 %27, 16384
  %29 = icmp ne i64 %28, 0
  br i1 %29, label %50, label %30

30:                                               ; preds = %23
  %31 = load ptr, ptr %3, align 8
  %32 = getelementptr inbounds nuw %struct.node_record, ptr %31, i32 0, i32 44
  %33 = load i32, ptr %32, align 8
  %34 = zext i32 %33 to i64
  %35 = and i64 %34, 4096
  %36 = icmp ne i64 %35, 0
  br i1 %36, label %50, label %37

37:                                               ; preds = %30
  %38 = load ptr, ptr %3, align 8
  %39 = getelementptr inbounds nuw %struct.node_record, ptr %38, i32 0, i32 44
  %40 = load i32, ptr %39, align 8
  %41 = zext i32 %40 to i64
  %42 = and i64 %41, 512
  %43 = icmp ne i64 %42, 0
  br i1 %43, label %50, label %44

44:                                               ; preds = %37
  %45 = load ptr, ptr %3, align 8
  %46 = getelementptr inbounds nuw %struct.node_record, ptr %45, i32 0, i32 66
  %47 = load i16, ptr %46, align 8
  %48 = zext i16 %47 to i32
  %49 = icmp sgt i32 %48, 0
  br i1 %49, label %50, label %51

50:                                               ; preds = %44, %37, %30, %23, %16
  store i1 false, ptr %2, align 1
  br label %52

51:                                               ; preds = %44
  store i1 true, ptr %2, align 1
  br label %52

52:                                               ; preds = %51, %50, %15
  %53 = load i1, ptr %2, align 1
  ret i1 %53
}

; Function Attrs: nounwind uwtable
define internal zeroext i1 @_node_state_suspendable(ptr noundef %0) #0 {
  %2 = alloca i1, align 1
  %3 = alloca ptr, align 8
  store ptr %0, ptr %3, align 8
  %4 = load ptr, ptr %3, align 8
  %5 = getelementptr inbounds nuw %struct.node_record, ptr %4, i32 0, i32 44
  %6 = load i32, ptr %5, align 8
  %7 = and i32 %6, 15
  %8 = icmp eq i32 %7, 2
  br i1 %8, label %16, label %9

9:                                                ; preds = %1
  %10 = load ptr, ptr %3, align 8
  %11 = getelementptr inbounds nuw %struct.node_record, ptr %10, i32 0, i32 44
  %12 = load i32, ptr %11, align 8
  %13 = and i32 %12, 15
  %14 = icmp eq i32 %13, 1
  br i1 %14, label %16, label %15

15:                                               ; preds = %9
  store i1 false, ptr %2, align 1
  br label %53

16:                                               ; preds = %9, %1
  %17 = load ptr, ptr %3, align 8
  %18 = getelementptr inbounds nuw %struct.node_record, ptr %17, i32 0, i32 44
  %19 = load i32, ptr %18, align 8
  %20 = zext i32 %19 to i64
  %21 = and i64 %20, 1024
  %22 = icmp ne i64 %21, 0
  br i1 %22, label %51, label %23

23:                                               ; preds = %16
  %24 = load ptr, ptr %3, align 8
  %25 = getelementptr inbounds nuw %struct.node_record, ptr %24, i32 0, i32 44
  %26 = load i32, ptr %25, align 8
  %27 = zext i32 %26 to i64
  %28 = and i64 %27, 16384
  %29 = icmp ne i64 %28, 0
  br i1 %29, label %51, label %30

30:                                               ; preds = %23
  %31 = load ptr, ptr %3, align 8
  %32 = getelementptr inbounds nuw %struct.node_record, ptr %31, i32 0, i32 44
  %33 = load i32, ptr %32, align 8
  %34 = zext i32 %33 to i64
  %35 = and i64 %34, 262144
  %36 = icmp ne i64 %35, 0
  br i1 %36, label %51, label %37

37:                                               ; preds = %30
  %38 = load ptr, ptr %3, align 8
  %39 = getelementptr inbounds nuw %struct.node_record, ptr %38, i32 0, i32 44
  %40 = load i32, ptr %39, align 8
  %41 = zext i32 %40 to i64
  %42 = and i64 %41, 1048576
  %43 = icmp ne i64 %42, 0
  br i1 %43, label %51, label %44

44:                                               ; preds = %37
  %45 = load ptr, ptr %3, align 8
  %46 = getelementptr inbounds nuw %struct.node_record, ptr %45, i32 0, i32 44
  %47 = load i32, ptr %46, align 8
  %48 = zext i32 %47 to i64
  %49 = and i64 %48, 65536
  %50 = icmp ne i64 %49, 0
  br i1 %50, label %51, label %52

51:                                               ; preds = %44, %37, %30, %23, %16
  store i1 false, ptr %2, align 1
  br label %53

52:                                               ; preds = %44
  store i1 true, ptr %2, align 1
  br label %53

53:                                               ; preds = %52, %51, %15
  %54 = load i1, ptr %2, align 1
  ret i1 %54
}

; Function Attrs: nounwind uwtable
define internal i32 @_pick_exc_nodes(ptr noundef %0, ptr noundef %1) #0 {
  %3 = alloca ptr, align 8
  %4 = alloca ptr, align 8
  %5 = alloca ptr, align 8
  %6 = alloca ptr, align 8
  %7 = alloca ptr, align 8
  %8 = alloca ptr, align 8
  %9 = alloca ptr, align 8
  %10 = alloca i32, align 4
  %11 = alloca i32, align 4
  %12 = alloca i32, align 4
  %13 = alloca ptr, align 8
  %14 = alloca ptr, align 8
  %15 = alloca ptr, align 8
  %16 = alloca ptr, align 8
  %17 = alloca ptr, align 8
  %18 = alloca i32, align 4
  store ptr %0, ptr %3, align 8
  store ptr %1, ptr %4, align 8
  call void @llvm.lifetime.start.p0(i64 8, ptr %5) #9
  %19 = load ptr, ptr %4, align 8
  store ptr %19, ptr %5, align 8
  call void @llvm.lifetime.start.p0(i64 8, ptr %6) #9
  %20 = load ptr, ptr %3, align 8
  store ptr %20, ptr %6, align 8
  call void @llvm.lifetime.start.p0(i64 8, ptr %7) #9
  call void @llvm.lifetime.start.p0(i64 8, ptr %8) #9
  store ptr null, ptr %8, align 8
  call void @llvm.lifetime.start.p0(i64 8, ptr %9) #9
  store ptr null, ptr %9, align 8
  call void @llvm.lifetime.start.p0(i64 4, ptr %10) #9
  call void @llvm.lifetime.start.p0(i64 4, ptr %11) #9
  call void @llvm.lifetime.start.p0(i64 4, ptr %12) #9
  call void @llvm.lifetime.start.p0(i64 8, ptr %13) #9
  store ptr null, ptr %13, align 8
  call void @llvm.lifetime.start.p0(i64 8, ptr %14) #9
  call void @llvm.lifetime.start.p0(i64 8, ptr %15) #9
  call void @llvm.lifetime.start.p0(i64 8, ptr %16) #9
  store ptr null, ptr %16, align 8
  call void @llvm.lifetime.start.p0(i64 8, ptr %17) #9
  store ptr null, ptr %17, align 8
  %21 = load ptr, ptr %6, align 8
  %22 = getelementptr inbounds nuw %struct.exc_node_partital, ptr %21, i32 0, i32 1
  %23 = load ptr, ptr %22, align 8
  store ptr %23, ptr %7, align 8
  %24 = load ptr, ptr %6, align 8
  %25 = getelementptr inbounds nuw %struct.exc_node_partital, ptr %24, i32 0, i32 0
  %26 = load i32, ptr %25, align 8
  store i32 %26, ptr %11, align 4
  %27 = load ptr, ptr %7, align 8
  %28 = call i32 @bit_set_count(ptr noundef %27)
  store i32 %28, ptr %10, align 4
  %29 = load i32, ptr %11, align 4
  %30 = load i32, ptr %10, align 4
  %31 = icmp sge i32 %29, %30
  br i1 %31, label %32, label %35

32:                                               ; preds = %2
  %33 = load ptr, ptr %7, align 8
  %34 = call ptr @bit_copy(ptr noundef %33)
  store ptr %34, ptr %7, align 8
  br label %146

35:                                               ; preds = %2
  store i32 0, ptr %12, align 4
  %36 = load ptr, ptr %7, align 8
  %37 = call i64 @bit_size(ptr noundef %36)
  %38 = call ptr @bit_alloc(i64 noundef %37)
  store ptr %38, ptr %8, align 8
  %39 = load ptr, ptr %7, align 8
  %40 = call i64 @bit_size(ptr noundef %39)
  %41 = call ptr @bit_alloc(i64 noundef %40)
  store ptr %41, ptr %9, align 8
  call void @llvm.lifetime.start.p0(i64 4, ptr %18) #9
  store i32 0, ptr %18, align 4
  br label %42

42:                                               ; preds = %72, %35
  %43 = load ptr, ptr %7, align 8
  %44 = call ptr @next_node_bitmap(ptr noundef %43, ptr noundef %18)
  store ptr %44, ptr %13, align 8
  %45 = icmp ne ptr %44, null
  br i1 %45, label %47, label %46

46:                                               ; preds = %42
  call void @llvm.lifetime.end.p0(i64 4, ptr %18) #9
  br label %75

47:                                               ; preds = %42
  %48 = load ptr, ptr %13, align 8
  %49 = call zeroext i1 @_node_state_suspendable(ptr noundef %48)
  br i1 %49, label %50, label %61

50:                                               ; preds = %47
  %51 = load ptr, ptr %13, align 8
  %52 = getelementptr inbounds nuw %struct.node_record, ptr %51, i32 0, i32 44
  %53 = load i32, ptr %52, align 8
  %54 = zext i32 %53 to i64
  %55 = and i64 %54, 4096
  %56 = icmp ne i64 %55, 0
  br i1 %56, label %61, label %57

57:                                               ; preds = %50
  %58 = load ptr, ptr %8, align 8
  %59 = load i32, ptr %18, align 4
  %60 = sext i32 %59 to i64
  call void @bit_set(ptr noundef %58, i64 noundef %60)
  br label %71

61:                                               ; preds = %50, %47
  %62 = load ptr, ptr %13, align 8
  %63 = call zeroext i1 @_node_state_active(ptr noundef %62)
  br i1 %63, label %64, label %70

64:                                               ; preds = %61
  %65 = load ptr, ptr %9, align 8
  %66 = load i32, ptr %18, align 4
  %67 = sext i32 %66 to i64
  call void @bit_set(ptr noundef %65, i64 noundef %67)
  %68 = load i32, ptr %12, align 4
  %69 = add nsw i32 %68, 1
  store i32 %69, ptr %12, align 4
  br label %70

70:                                               ; preds = %64, %61
  br label %71

71:                                               ; preds = %70, %57
  br label %72

72:                                               ; preds = %71
  %73 = load i32, ptr %18, align 4
  %74 = add nsw i32 %73, 1
  store i32 %74, ptr %18, align 4
  br label %42, !llvm.loop !23

75:                                               ; preds = %46
  %76 = load i8, ptr @power_save_debug, align 1, !range !11, !noundef !12
  %77 = trunc i8 %76 to i1
  br i1 %77, label %78, label %125

78:                                               ; preds = %75
  %79 = call i32 @get_log_level()
  %80 = icmp sge i32 %79, 5
  br i1 %80, label %81, label %125

81:                                               ; preds = %78
  %82 = load ptr, ptr %9, align 8
  %83 = call ptr @bitmap2hostlist(ptr noundef %82)
  store ptr %83, ptr %14, align 8
  %84 = load ptr, ptr %14, align 8
  %85 = call ptr @slurm_hostlist_ranged_string_xmalloc(ptr noundef %84)
  store ptr %85, ptr %17, align 8
  %86 = load ptr, ptr %8, align 8
  %87 = call ptr @bitmap2hostlist(ptr noundef %86)
  store ptr %87, ptr %15, align 8
  %88 = load ptr, ptr %15, align 8
  %89 = call ptr @slurm_hostlist_ranged_string_xmalloc(ptr noundef %88)
  store ptr %89, ptr %16, align 8
  br label %90

90:                                               ; preds = %81
  %91 = load i64, ptr getelementptr inbounds nuw (%struct.slurm_conf_t, ptr @slurm_conf, i32 0, i32 42), align 8
  %92 = and i64 %91, 4398046511104
  %93 = icmp ne i64 %92, 0
  br i1 %93, label %94, label %106

94:                                               ; preds = %90
  br label %95

95:                                               ; preds = %94
  %96 = call i32 @get_log_level()
  %97 = icmp sge i32 %96, 4
  br i1 %97, label %98, label %103

98:                                               ; preds = %95
  %99 = load i32, ptr %11, align 4
  %100 = load i32, ptr %12, align 4
  %101 = load ptr, ptr %17, align 8
  %102 = load ptr, ptr %16, align 8
  call void (i32, ptr, ...) @log_var(i32 noundef 4, ptr noundef @.str.69, i32 noundef %99, i32 noundef %100, ptr noundef %101, ptr noundef %102)
  br label %103

103:                                              ; preds = %98, %95
  br label %104

104:                                              ; preds = %103
  br label %105

105:                                              ; preds = %104
  br label %106

106:                                              ; preds = %105, %90
  br label %107

107:                                              ; preds = %106
  br label %108

108:                                              ; preds = %107
  br label %109

109:                                              ; preds = %108
  %110 = load ptr, ptr %14, align 8
  %111 = icmp ne ptr %110, null
  br i1 %111, label %112, label %114

112:                                              ; preds = %109
  %113 = load ptr, ptr %14, align 8
  call void @hostlist_destroy(ptr noundef %113)
  br label %114

114:                                              ; preds = %112, %109
  store ptr null, ptr %14, align 8
  br label %115

115:                                              ; preds = %114
  br label %116

116:                                              ; preds = %115
  br label %117

117:                                              ; preds = %116
  %118 = load ptr, ptr %15, align 8
  %119 = icmp ne ptr %118, null
  br i1 %119, label %120, label %122

120:                                              ; preds = %117
  %121 = load ptr, ptr %15, align 8
  call void @hostlist_destroy(ptr noundef %121)
  br label %122

122:                                              ; preds = %120, %117
  store ptr null, ptr %15, align 8
  br label %123

123:                                              ; preds = %122
  br label %124

124:                                              ; preds = %123
  call void @slurm_xfree(ptr noundef %17)
  call void @slurm_xfree(ptr noundef %16)
  br label %125

125:                                              ; preds = %124, %78, %75
  %126 = load i32, ptr %12, align 4
  %127 = load i32, ptr %11, align 4
  %128 = sub nsw i32 %127, %126
  store i32 %128, ptr %11, align 4
  %129 = load i32, ptr %11, align 4
  %130 = icmp sgt i32 %129, 0
  br i1 %130, label %131, label %135

131:                                              ; preds = %125
  %132 = load ptr, ptr %8, align 8
  %133 = load i32, ptr %11, align 4
  %134 = sext i32 %133 to i64
  call void @bit_pick_firstn(ptr noundef %132, i64 noundef %134)
  br label %137

135:                                              ; preds = %125
  %136 = load ptr, ptr %8, align 8
  call void @bit_clear_all(ptr noundef %136)
  br label %137

137:                                              ; preds = %135, %131
  %138 = load ptr, ptr %8, align 8
  store ptr %138, ptr %7, align 8
  br label %139

139:                                              ; preds = %137
  %140 = load ptr, ptr %9, align 8
  %141 = icmp ne ptr %140, null
  br i1 %141, label %142, label %143

142:                                              ; preds = %139
  call void @slurm_bit_free(ptr noundef %9)
  br label %143

143:                                              ; preds = %142, %139
  store ptr null, ptr %9, align 8
  br label %144

144:                                              ; preds = %143
  br label %145

145:                                              ; preds = %144
  br label %146

146:                                              ; preds = %145, %32
  %147 = load ptr, ptr %5, align 8
  %148 = load ptr, ptr %147, align 8
  %149 = icmp eq ptr %148, null
  br i1 %149, label %150, label %153

150:                                              ; preds = %146
  %151 = load ptr, ptr %7, align 8
  %152 = load ptr, ptr %5, align 8
  store ptr %151, ptr %152, align 8
  br label %164

153:                                              ; preds = %146
  %154 = load ptr, ptr %5, align 8
  %155 = load ptr, ptr %154, align 8
  %156 = load ptr, ptr %7, align 8
  call void @bit_or(ptr noundef %155, ptr noundef %156)
  br label %157

157:                                              ; preds = %153
  %158 = load ptr, ptr %7, align 8
  %159 = icmp ne ptr %158, null
  br i1 %159, label %160, label %161

160:                                              ; preds = %157
  call void @slurm_bit_free(ptr noundef %7)
  br label %161

161:                                              ; preds = %160, %157
  store ptr null, ptr %7, align 8
  br label %162

162:                                              ; preds = %161
  br label %163

163:                                              ; preds = %162
  br label %164

164:                                              ; preds = %163, %150
  call void @llvm.lifetime.end.p0(i64 8, ptr %17) #9
  call void @llvm.lifetime.end.p0(i64 8, ptr %16) #9
  call void @llvm.lifetime.end.p0(i64 8, ptr %15) #9
  call void @llvm.lifetime.end.p0(i64 8, ptr %14) #9
  call void @llvm.lifetime.end.p0(i64 8, ptr %13) #9
  call void @llvm.lifetime.end.p0(i64 4, ptr %12) #9
  call void @llvm.lifetime.end.p0(i64 4, ptr %11) #9
  call void @llvm.lifetime.end.p0(i64 4, ptr %10) #9
  call void @llvm.lifetime.end.p0(i64 8, ptr %9) #9
  call void @llvm.lifetime.end.p0(i64 8, ptr %8) #9
  call void @llvm.lifetime.end.p0(i64 8, ptr %7) #9
  call void @llvm.lifetime.end.p0(i64 8, ptr %6) #9
  call void @llvm.lifetime.end.p0(i64 8, ptr %5) #9
  ret i32 0
}