; Function Attrs: nounwind uwtable
define internal noundef i32 @_pick_exc_nodes(ptr noundef readonly captures(none) %0, ptr noundef captures(none) %1) #0 {
  %3 = alloca ptr, align 8
  %4 = alloca ptr, align 8
  %5 = alloca ptr, align 8
  %6 = alloca ptr, align 8
  %7 = alloca i32, align 4
  call void @llvm.lifetime.start.p0(i64 8, ptr nonnull %3) #12
  call void @llvm.lifetime.start.p0(i64 8, ptr nonnull %4) #12
  store ptr null, ptr %4, align 8
  call void @llvm.lifetime.start.p0(i64 8, ptr nonnull %5) #12
  store ptr null, ptr %5, align 8
  call void @llvm.lifetime.start.p0(i64 8, ptr nonnull %6) #12
  store ptr null, ptr %6, align 8
  %8 = getelementptr inbounds nuw i8, ptr %0, i64 8
  %9 = load ptr, ptr %8, align 8
  %10 = load i32, ptr %0, align 8
  %11 = tail call i32 @bit_set_count(ptr noundef %9) #12
  %.not = icmp slt i32 %10, %11
  br i1 %.not, label %14, label %12

12:                                               ; preds = %2
  %13 = tail call ptr @bit_copy(ptr noundef %9) #12
  store ptr %13, ptr %3, align 8
  br label %69

14:                                               ; preds = %2
  %15 = tail call i64 @bit_size(ptr noundef %9) #12
  %16 = tail call ptr @bit_alloc(i64 noundef %15) #12
  %17 = tail call i64 @bit_size(ptr noundef %9) #12
  %18 = tail call ptr @bit_alloc(i64 noundef %17) #12
  store ptr %18, ptr %4, align 8
  call void @llvm.lifetime.start.p0(i64 4, ptr nonnull %7) #12
  store i32 0, ptr %7, align 4
  %19 = call ptr @next_node_bitmap(ptr noundef %9, ptr noundef nonnull %7) #12
  %.not3544 = icmp eq ptr %19, null
  br i1 %.not3544, label %._crit_edge, label %.lr.ph

._crit_edge:                                      ; preds = %_node_state_active.exit.thread, %14
  %.0.lcssa = phi i32 [ 0, %14 ], [ %.1, %_node_state_active.exit.thread ]
  call void @llvm.lifetime.end.p0(i64 4, ptr nonnull %7) #12
  %20 = load i8, ptr @power_save_debug, align 1, !range !13, !noundef !14
  %21 = trunc nuw i8 %20 to i1
  br i1 %21, label %41, label %60

.lr.ph:                                           ; preds = %14, %_node_state_active.exit.thread
  %22 = phi ptr [ %40, %_node_state_active.exit.thread ], [ %19, %14 ]
  %.045 = phi i32 [ %.1, %_node_state_active.exit.thread ], [ 0, %14 ]
  %23 = getelementptr i8, ptr %22, i64 320
  %.val = load i32, ptr %23, align 8
  %24 = and i32 %.val, 15
  %.off.i = add nsw i32 %24, -1
  %switch.i = icmp ult i32 %.off.i, 2
  %25 = and i32 %.val, 1397760
  %26 = icmp eq i32 %25, 0
  %or.cond = and i1 %26, %switch.i
  br i1 %or.cond, label %27, label %30

27:                                               ; preds = %.lr.ph
  %28 = load i32, ptr %7, align 4
  %29 = sext i32 %28 to i64
  call void @bit_set(ptr noundef %16, i64 noundef %29) #12
  br label %_node_state_active.exit.thread

30:                                               ; preds = %.lr.ph
  %31 = and i32 %.val, 283150
  %or.cond.i = icmp eq i32 %31, 2
  br i1 %or.cond.i, label %_node_state_active.exit, label %_node_state_active.exit.thread

_node_state_active.exit:                          ; preds = %30
  %32 = getelementptr inbounds nuw i8, ptr %22, i64 464
  %33 = load i16, ptr %32, align 8
  %.not12.i = icmp eq i16 %33, 0
  br i1 %.not12.i, label %34, label %_node_state_active.exit.thread

34:                                               ; preds = %_node_state_active.exit
  %35 = load i32, ptr %7, align 4
  %36 = sext i32 %35 to i64
  call void @bit_set(ptr noundef %18, i64 noundef %36) #12
  %37 = add nsw i32 %.045, 1
  br label %_node_state_active.exit.thread

_node_state_active.exit.thread:                   ; preds = %30, %27, %34, %_node_state_active.exit
  %.1 = phi i32 [ %37, %34 ], [ %.045, %_node_state_active.exit ], [ %.045, %27 ], [ %.045, %30 ]
  %38 = load i32, ptr %7, align 4
  %39 = add nsw i32 %38, 1
  store i32 %39, ptr %7, align 4
  %40 = call ptr @next_node_bitmap(ptr noundef %9, ptr noundef nonnull %7) #12
  %.not35 = icmp eq ptr %40, null
  br i1 %.not35, label %._crit_edge, label %.lr.ph, !llvm.loop !23

41:                                               ; preds = %._crit_edge
  %42 = call i32 @get_log_level() #12
  %43 = icmp sgt i32 %42, 4
  br i1 %43, label %44, label %60

44:                                               ; preds = %41
  %45 = call ptr @bitmap2hostlist(ptr noundef %18) #12
  %46 = call ptr @slurm_hostlist_ranged_string_xmalloc(ptr noundef %45) #12
  store ptr %46, ptr %6, align 8
  %47 = call ptr @bitmap2hostlist(ptr noundef %16) #12
  %48 = call ptr @slurm_hostlist_ranged_string_xmalloc(ptr noundef %47) #12
  store ptr %48, ptr %5, align 8
  %49 = load i64, ptr getelementptr inbounds nuw (i8, ptr @slurm_conf, i64 320), align 8
  %50 = and i64 %49, 4398046511104
  %.not36 = icmp eq i64 %50, 0
  br i1 %.not36, label %55, label %51

51:                                               ; preds = %44
  %52 = call i32 @get_log_level() #12
  %53 = icmp sgt i32 %52, 3
  br i1 %53, label %54, label %55

54:                                               ; preds = %51
  call void (i32, ptr, ...) @log_var(i32 noundef 4, ptr noundef nonnull @.str.69, i32 noundef %10, i32 noundef %.0.lcssa, ptr noundef %46, ptr noundef %48) #12
  br label %55

55:                                               ; preds = %44, %54, %51
  %.not37 = icmp eq ptr %45, null
  br i1 %.not37, label %57, label %56

56:                                               ; preds = %55
  call void @hostlist_destroy(ptr noundef nonnull %45) #12
  br label %57

57:                                               ; preds = %56, %55
  %.not38 = icmp eq ptr %47, null
  br i1 %.not38, label %59, label %58

58:                                               ; preds = %57
  call void @hostlist_destroy(ptr noundef nonnull %47) #12
  br label %59

59:                                               ; preds = %58, %57
  call void @slurm_xfree(ptr noundef nonnull %6) #12
  call void @slurm_xfree(ptr noundef nonnull %5) #12
  br label %60

60:                                               ; preds = %59, %41, %._crit_edge
  %61 = sub nsw i32 %10, %.0.lcssa
  %62 = icmp sgt i32 %61, 0
  br i1 %62, label %63, label %65

63:                                               ; preds = %60
  %64 = zext nneg i32 %61 to i64
  call void @bit_pick_firstn(ptr noundef %16, i64 noundef %64) #12
  br label %66

65:                                               ; preds = %60
  call void @bit_clear_all(ptr noundef %16) #12
  br label %66

66:                                               ; preds = %65, %63
  store ptr %16, ptr %3, align 8
  %.not39 = icmp eq ptr %18, null
  br i1 %.not39, label %68, label %67

67:                                               ; preds = %66
  call void @slurm_bit_free(ptr noundef nonnull %4) #12
  br label %68

68:                                               ; preds = %67, %66
  store ptr null, ptr %4, align 8
  br label %69

69:                                               ; preds = %68, %12
  %70 = phi ptr [ %16, %68 ], [ %13, %12 ]
  %71 = load ptr, ptr %1, align 8
  %72 = icmp eq ptr %71, null
  br i1 %72, label %73, label %74

73:                                               ; preds = %69
  store ptr %70, ptr %1, align 8
  br label %76

74:                                               ; preds = %69
  call void @bit_or(ptr noundef nonnull %71, ptr noundef %70) #12
  %.not41 = icmp eq ptr %70, null
  br i1 %.not41, label %76, label %75

75:                                               ; preds = %74
  call void @slurm_bit_free(ptr noundef nonnull %3) #12
  br label %76

76:                                               ; preds = %74, %75, %73
  call void @llvm.lifetime.end.p0(i64 8, ptr nonnull %6) #12
  call void @llvm.lifetime.end.p0(i64 8, ptr nonnull %5) #12
  call void @llvm.lifetime.end.p0(i64 8, ptr nonnull %4) #12
  call void @llvm.lifetime.end.p0(i64 8, ptr nonnull %3) #12
  ret i32 0
}